target datalayout = "e-m:e-p270:32:32-p271:32:32-p272:64:64-i64:64-i128:128-f80:128-n8:16:32:64-S128"
target triple = "x86_64-pc-linux-gnu"

%struct.xcgroup_t = type { ptr, ptr, ptr, i32, i32, i32 }

; Function Attrs: nounwind uwtable
define dso_local void @common_cgroup_destroy(ptr noundef %0) #0 {
  %2 = alloca ptr, align 8
  store ptr %0, ptr %2, align 8
  %3 = load ptr, ptr %2, align 8
  %4 = getelementptr inbounds nuw %struct.xcgroup_t, ptr %3, i32 0, i32 0
  store ptr null, ptr %4, align 8
  %5 = load ptr, ptr %2, align 8
  %6 = getelementptr inbounds nuw %struct.xcgroup_t, ptr %5, i32 0, i32 1
  call void @slurm_xfree(ptr noundef %6)
  %7 = load ptr, ptr %2, align 8
  %8 = getelementptr inbounds nuw %struct.xcgroup_t, ptr %7, i32 0, i32 2
  call void @slurm_xfree(ptr noundef %8)
  %9 = load ptr, ptr %2, align 8
  %10 = getelementptr inbounds nuw %struct.xcgroup_t, ptr %9, i32 0, i32 3
  store i32 -1, ptr %10, align 8
  %11 = load ptr, ptr %2, align 8
  %12 = getelementptr inbounds nuw %struct.xcgroup_t, ptr %11, i32 0, i32 4
  store i32 -1, ptr %12, align 4
  ret void
}