; Function Attrs: nounwind uwtable
define dso_local void @common_cgroup_destroy(ptr noundef initializes((0, 8)) %0) local_unnamed_addr #0 {
  store ptr null, ptr %0, align 8
  %2 = getelementptr inbounds nuw i8, ptr %0, i64 8
  tail call void @slurm_xfree(ptr noundef nonnull %2) #8
  %3 = getelementptr inbounds nuw i8, ptr %0, i64 16
  tail call void @slurm_xfree(ptr noundef nonnull %3) #8
  %4 = getelementptr inbounds nuw i8, ptr %0, i64 24
  store i32 -1, ptr %4, align 8
  %5 = getelementptr inbounds nuw i8, ptr %0, i64 28
  store i32 -1, ptr %5, align 4
  ret void
}